target datalayout = "e-m:e-p270:32:32-p271:32:32-p272:64:64-i64:64-i128:128-f80:128-n8:16:32:64-S128"
target triple = "x86_64-pc-linux-gnu"

%"class.std::locale" = type { ptr }
%"class.std::ios_base" = type { ptr, i64, i64, i32, i32, i32, ptr, %"struct.std::ios_base::_Words", [8 x %"struct.std::ios_base::_Words"], i32, ptr, %"class.std::locale" }
%"struct.std::ios_base::_Words" = type { ptr, i64 }
%"class.cvc5::internal::FatalStream" = type { i8 }

@__PRETTY_FUNCTION__._ZNK4cvc58internal13SkolemManager24getNumIndicesForSkolemIdENS_8SkolemIdE = private unnamed_addr constant [79 x i8] c"size_t cvc5::internal::SkolemManager::getNumIndicesForSkolemId(SkolemId) const\00", align 1
@.str.8 = private unnamed_addr constant [115 x i8] c"generated/home/dtcxzyw/WorkSpace/Projects/compilers/llvm-opt-benchmark/bench/cvc5/cvc5/src/expr/skolem_manager.cpp\00", align 1
@.str.9 = private unnamed_addr constant [32 x i8] c"Unimplemented code encountered \00", align 1
@.str.10 = private unnamed_addr constant [21 x i8] c"Unknown skolem kind \00", align 1

; Function Attrs: inlinehint mustprogress nounwind uwtable
define linkonce_odr noundef i32 @_ZStorSt12_Ios_IostateS_(i32 noundef %0, i32 noundef %1) #7 comdat {
  %3 = alloca i32, align 4
  %4 = alloca i32, align 4
  store i32 %0, ptr %3, align 4, !tbaa !361
  store i32 %1, ptr %4, align 4, !tbaa !361
  %5 = load i32, ptr %3, align 4, !tbaa !361
  %6 = load i32, ptr %4, align 4, !tbaa !361
  %7 = or i32 %5, %6
  ret i32 %7
}

; Function Attrs: mustprogress nounwind uwtable
define available_externally noundef i32 @_ZNKSt9basic_iosIcSt11char_traitsIcEE7rdstateEv(ptr noundef nonnull align 8 dereferenceable(264) %0) #4 align 2 {
  %2 = alloca ptr, align 8
  store ptr %0, ptr %2, align 8, !tbaa !335
  %3 = load ptr, ptr %2, align 8
  %4 = getelementptr inbounds nuw %"class.std::ios_base", ptr %3, i32 0, i32 5
  %5 = load i32, ptr %4, align 8, !tbaa !362
  ret i32 %5
}

; Function Attrs: mustprogress nounwind uwtable
define linkonce_odr hidden noundef i64 @_ZNSt11char_traitsIcE6lengthEPKc(ptr noundef %0) #4 comdat align 2 {
  %2 = alloca ptr, align 8
  store ptr %0, ptr %2, align 8, !tbaa !59
  %3 = load ptr, ptr %2, align 8, !tbaa !59
  %4 = call i64 @strlen(ptr noundef %3) #3
  ret i64 %4
}

; Function Attrs: mustprogress uwtable
define available_externally void @_ZNSt9basic_iosIcSt11char_traitsIcEE8setstateESt12_Ios_Iostate(ptr noundef nonnull align 8 dereferenceable(264) %0, i32 noundef %1) #5 align 2 {
  %3 = alloca ptr, align 8
  %4 = alloca i32, align 4
  store ptr %0, ptr %3, align 8, !tbaa !335
  store i32 %1, ptr %4, align 4, !tbaa !361
  %5 = load ptr, ptr %3, align 8
  %6 = call noundef i32 @_ZNKSt9basic_iosIcSt11char_traitsIcEE7rdstateEv(ptr noundef nonnull align 8 dereferenceable(264) %5)
  %7 = load i32, ptr %4, align 4, !tbaa !361
  %8 = call noundef i32 @_ZStorSt12_Ios_IostateS_(i32 noundef %6, i32 noundef %7)
  call void @_ZNSt9basic_iosIcSt11char_traitsIcEE5clearESt12_Ios_Iostate(ptr noundef nonnull align 8 dereferenceable(264) %5, i32 noundef %8)
  ret void
}

; Function Attrs: inlinehint mustprogress uwtable
define available_externally noundef nonnull align 8 dereferenceable(8) ptr @_ZStlsISt11char_traitsIcEERSt13basic_ostreamIcT_ES5_PKc(ptr noundef nonnull align 8 dereferenceable(8) %0, ptr noundef %1) #8 {
  %3 = alloca ptr, align 8
  %4 = alloca ptr, align 8
  store ptr %0, ptr %3, align 8, !tbaa !32
  store ptr %1, ptr %4, align 8, !tbaa !59
  %5 = load ptr, ptr %4, align 8, !tbaa !59
  %6 = icmp ne ptr %5, null
  br i1 %6, label %13, label %7

7:                                                ; preds = %2
  %8 = load ptr, ptr %3, align 8, !tbaa !32
  %9 = load ptr, ptr %8, align 8, !tbaa !66
  %10 = getelementptr i8, ptr %9, i64 -24
  %11 = load i64, ptr %10, align 8
  %12 = getelementptr inbounds i8, ptr %8, i64 %11
  call void @_ZNSt9basic_iosIcSt11char_traitsIcEE8setstateESt12_Ios_Iostate(ptr noundef nonnull align 8 dereferenceable(264) %12, i32 noundef 1)
  br label %19

13:                                               ; preds = %2
  %14 = load ptr, ptr %3, align 8, !tbaa !32
  %15 = load ptr, ptr %4, align 8, !tbaa !59
  %16 = load ptr, ptr %4, align 8, !tbaa !59
  %17 = call noundef i64 @_ZNSt11char_traitsIcE6lengthEPKc(ptr noundef %16)
  %18 = call noundef nonnull align 8 dereferenceable(8) ptr @_ZSt16__ostream_insertIcSt11char_traitsIcEERSt13basic_ostreamIT_T0_ES6_PKS3_l(ptr noundef nonnull align 8 dereferenceable(8) %14, ptr noundef %15, i64 noundef %17)
  br label %19

19:                                               ; preds = %13, %7
  %20 = load ptr, ptr %3, align 8, !tbaa !32
  ret ptr %20
}

; Function Attrs: mustprogress uwtable
define hidden noundef i64 @_ZNK4cvc58internal13SkolemManager24getNumIndicesForSkolemIdENS_8SkolemIdE(ptr noundef nonnull align 8 dereferenceable(104) %0, i32 noundef %1) #5 align 2 personality ptr @__gxx_personality_v0 {
  %3 = alloca i64, align 8
  %4 = alloca ptr, align 8
  %5 = alloca i32, align 4
  %6 = alloca %"class.cvc5::internal::FatalStream", align 1
  %7 = alloca ptr, align 8
  %8 = alloca i32, align 4
  store ptr %0, ptr %4, align 8, !tbaa !3
  store i32 %1, ptr %5, align 4, !tbaa !42
  %9 = load i32, ptr %5, align 4, !tbaa !42
  switch i32 %9, label %15 [
    i32 4, label %10
    i32 5, label %10
    i32 6, label %10
    i32 7, label %10
    i32 1, label %11
    i32 2, label %11
    i32 8, label %11
    i32 9, label %11
    i32 10, label %11
    i32 26, label %11
    i32 27, label %11
    i32 28, label %11
    i32 29, label %11
    i32 34, label %11
    i32 35, label %11
    i32 36, label %11
    i32 38, label %11
    i32 39, label %11
    i32 40, label %11
    i32 41, label %11
    i32 42, label %11
    i32 47, label %11
    i32 49, label %11
    i32 51, label %11
    i32 53, label %11
    i32 55, label %11
    i32 56, label %11
    i32 58, label %11
    i32 59, label %11
    i32 63, label %11
    i32 62, label %11
    i32 3, label %12
    i32 17, label %12
    i32 20, label %12
    i32 21, label %12
    i32 22, label %12
    i32 23, label %12
    i32 24, label %12
    i32 25, label %12
    i32 30, label %12
    i32 31, label %12
    i32 32, label %12
    i32 46, label %12
    i32 48, label %12
    i32 50, label %12
    i32 52, label %12
    i32 57, label %12
    i32 61, label %12
    i32 60, label %12
    i32 15, label %13
    i32 33, label %13
    i32 37, label %13
    i32 43, label %13
    i32 45, label %13
    i32 54, label %13
    i32 44, label %14
  ]

10:                                               ; preds = %2, %2, %2, %2
  store i64 0, ptr %3, align 8
  br label %30

11:                                               ; preds = %2, %2, %2, %2, %2, %2, %2, %2, %2, %2, %2, %2, %2, %2, %2, %2, %2, %2, %2, %2, %2, %2, %2, %2, %2, %2, %2
  store i64 1, ptr %3, align 8
  br label %30

12:                                               ; preds = %2, %2, %2, %2, %2, %2, %2, %2, %2, %2, %2, %2, %2, %2, %2, %2, %2, %2
  store i64 2, ptr %3, align 8
  br label %30

13:                                               ; preds = %2, %2, %2, %2, %2, %2
  store i64 3, ptr %3, align 8
  br label %30

14:                                               ; preds = %2
  store i64 5, ptr %3, align 8
  br label %30

15:                                               ; preds = %2
  call void @llvm.lifetime.start.p0(i64 1, ptr %6) #3
  call void @_ZN4cvc58internal11FatalStreamC1EPKcS3_i(ptr noundef nonnull align 1 dereferenceable(1) %6, ptr noundef @__PRETTY_FUNCTION__._ZNK4cvc58internal13SkolemManager24getNumIndicesForSkolemIdENS_8SkolemIdE, ptr noundef @.str.8, i32 noundef 703)
  %16 = invoke noundef nonnull align 8 dereferenceable(8) ptr @_ZN4cvc58internal11FatalStream6streamEv(ptr noundef nonnull align 1 dereferenceable(1) %6)
          to label %17 unwind label %25

17:                                               ; preds = %15
  %18 = invoke noundef nonnull align 8 dereferenceable(8) ptr @_ZStlsISt11char_traitsIcEERSt13basic_ostreamIcT_ES5_PKc(ptr noundef nonnull align 8 dereferenceable(8) %16, ptr noundef @.str.9)
          to label %19 unwind label %25

19:                                               ; preds = %17
  %20 = invoke noundef nonnull align 8 dereferenceable(8) ptr @_ZStlsISt11char_traitsIcEERSt13basic_ostreamIcT_ES5_PKc(ptr noundef nonnull align 8 dereferenceable(8) %18, ptr noundef @.str.10)
          to label %21 unwind label %25

21:                                               ; preds = %19
  %22 = load i32, ptr %5, align 4, !tbaa !42
  %23 = invoke noundef nonnull align 8 dereferenceable(8) ptr @_ZN4cvc5lsERSoNS_8SkolemIdE(ptr noundef nonnull align 8 dereferenceable(8) %20, i32 noundef %22)
          to label %24 unwind label %25

24:                                               ; preds = %21
  call void @_ZN4cvc58internal11FatalStreamD1Ev(ptr noundef nonnull align 1 dereferenceable(1) %6) #20
  unreachable

25:                                               ; preds = %21, %19, %17, %15
  %26 = landingpad { ptr, i32 }
          cleanup
  %27 = extractvalue { ptr, i32 } %26, 0
  store ptr %27, ptr %7, align 8
  %28 = extractvalue { ptr, i32 } %26, 1
  store i32 %28, ptr %8, align 4
  call void @_ZN4cvc58internal11FatalStreamD1Ev(ptr noundef nonnull align 1 dereferenceable(1) %6) #20
  unreachable

29:                                               ; No predecessors!
  call void @llvm.lifetime.end.p0(i64 1, ptr %6) #3
  br label %32

30:                                               ; preds = %14, %13, %12, %11, %10
  %31 = load i64, ptr %3, align 8
  ret i64 %31

32:                                               ; preds = %29
  %33 = load ptr, ptr %7, align 8
  %34 = load i32, ptr %8, align 4
  %35 = insertvalue { ptr, i32 } poison, ptr %33, 0
  %36 = insertvalue { ptr, i32 } %35, i32 %34, 1
  resume { ptr, i32 } %36
}