; Function Attrs: mustprogress uwtable
define hidden noundef range(i64 0, 6) i64 @_ZNK4cvc58internal13SkolemManager24getNumIndicesForSkolemIdENS_8SkolemIdE(ptr noundef nonnull readnone align 8 captures(none) dereferenceable(104) %0, i32 noundef %1) local_unnamed_addr #4 align 2 personality ptr @__gxx_personality_v0 {
  %3 = alloca %"class.cvc5::internal::FatalStream", align 1
  %switch.tableidx = add i32 %1, -1
  %4 = icmp ult i32 %switch.tableidx, 63
  br i1 %4, label %switch.hole_check, label %5

5:                                                ; preds = %switch.hole_check, %2
  call void @llvm.lifetime.start.p0(i64 1, ptr nonnull %3) #27
  call void @_ZN4cvc58internal11FatalStreamC1EPKcS3_i(ptr noundef nonnull align 1 dereferenceable(1) %3, ptr noundef nonnull @__PRETTY_FUNCTION__._ZNK4cvc58internal13SkolemManager24getNumIndicesForSkolemIdENS_8SkolemIdE, ptr noundef nonnull @.str.8, i32 noundef 703)
  %6 = invoke noundef nonnull align 8 dereferenceable(8) ptr @_ZN4cvc58internal11FatalStream6streamEv(ptr noundef nonnull align 1 dereferenceable(1) %3)
          to label %7 unwind label %12

7:                                                ; preds = %5
  %8 = invoke noundef nonnull align 8 dereferenceable(8) ptr @_ZSt16__ostream_insertIcSt11char_traitsIcEERSt13basic_ostreamIT_T0_ES6_PKS3_l(ptr noundef nonnull align 8 dereferenceable(8) %6, ptr noundef nonnull @.str.9, i64 noundef 31)
          to label %_ZStlsISt11char_traitsIcEERSt13basic_ostreamIcT_ES5_PKc.exit unwind label %12

_ZStlsISt11char_traitsIcEERSt13basic_ostreamIcT_ES5_PKc.exit: ; preds = %7
  %9 = invoke noundef nonnull align 8 dereferenceable(8) ptr @_ZSt16__ostream_insertIcSt11char_traitsIcEERSt13basic_ostreamIT_T0_ES6_PKS3_l(ptr noundef nonnull align 8 dereferenceable(8) %6, ptr noundef nonnull @.str.10, i64 noundef 20)
          to label %_ZStlsISt11char_traitsIcEERSt13basic_ostreamIcT_ES5_PKc.exit3 unwind label %12

_ZStlsISt11char_traitsIcEERSt13basic_ostreamIcT_ES5_PKc.exit3: ; preds = %_ZStlsISt11char_traitsIcEERSt13basic_ostreamIcT_ES5_PKc.exit
  %10 = invoke noundef nonnull align 8 dereferenceable(8) ptr @_ZN4cvc5lsERSoNS_8SkolemIdE(ptr noundef nonnull align 8 dereferenceable(8) %6, i32 noundef %1)
          to label %11 unwind label %12

11:                                               ; preds = %_ZStlsISt11char_traitsIcEERSt13basic_ostreamIcT_ES5_PKc.exit3
  call void @_ZN4cvc58internal11FatalStreamD1Ev(ptr noundef nonnull align 1 dereferenceable(1) %3) #26
  unreachable

12:                                               ; preds = %_ZStlsISt11char_traitsIcEERSt13basic_ostreamIcT_ES5_PKc.exit, %7, %_ZStlsISt11char_traitsIcEERSt13basic_ostreamIcT_ES5_PKc.exit3, %5
  %13 = landingpad { ptr, i32 }
          cleanup
  call void @_ZN4cvc58internal11FatalStreamD1Ev(ptr noundef nonnull align 1 dereferenceable(1) %3) #26
  unreachable

switch.hole_check:                                ; preds = %2
  %switch.maskindex = zext nneg i32 %switch.tableidx to i64
  %switch.shifted = lshr i64 9223372036854334463, %switch.maskindex
  %switch.lobit = trunc i64 %switch.shifted to i1
  br i1 %switch.lobit, label %switch.lookup, label %5

switch.lookup:                                    ; preds = %switch.hole_check
  %14 = zext nneg i32 %switch.tableidx to i64
  %switch.gep = getelementptr inbounds nuw [63 x i64], ptr @switch.table._ZNK4cvc58internal13SkolemManager24getNumIndicesForSkolemIdENS_8SkolemIdE, i64 0, i64 %14
  %switch.load = load i64, ptr %switch.gep, align 8
  ret i64 %switch.load
}